target datalayout = "e-m:e-p270:32:32-p271:32:32-p272:64:64-i64:64-i128:128-f80:128-n8:16:32:64-S128"
target triple = "x86_64-pc-linux-gnu"

%struct._ir_insn = type { %struct.anon, %union.anon.5 }
%struct.anon = type { %union.anon, %union.anon.4 }
%union.anon = type { i32 }
%union.anon.4 = type { i32 }
%union.anon.5 = type { %union._ir_val }
%union._ir_val = type { double }
%struct._ir_ctx = type { ptr, i32, i32, i32, i32, i32, i32, i32, i32, i32, i32, %struct._ir_insn, ptr, ptr, ptr, i32, i32, i32, ptr, ptr, ptr, ptr, ptr, i32, i32, i64, i32, i32, i32, i64, i32, i32, i32, i32, ptr, ptr, ptr, ptr, ptr, ptr, %union.anon.13, ptr, i32, i32, i32, i64, i32, i32, i32, ptr, ptr, ptr, ptr, %struct._ir_strtab, [61 x i32], [14 x i32] }
%union.anon.13 = type { ptr }
%struct._ir_strtab = type { ptr, i32, i32, i32, i32, ptr, i32, i32 }

; Function Attrs: nounwind uwtable
define internal void @ir_grow_bottom(ptr noundef %0) #0 {
  %2 = alloca ptr, align 8
  %3 = alloca ptr, align 8
  %4 = alloca i32, align 4
  store ptr %0, ptr %2, align 8
  %5 = load ptr, ptr %2, align 8
  %6 = getelementptr inbounds %struct._ir_ctx, ptr %5, i32 0, i32 0
  %7 = load ptr, ptr %6, align 8
  %8 = load ptr, ptr %2, align 8
  %9 = getelementptr inbounds %struct._ir_ctx, ptr %8, i32 0, i32 4
  %10 = load i32, ptr %9, align 4
  %11 = sext i32 %10 to i64
  %12 = sub i64 0, %11
  %13 = getelementptr inbounds %struct._ir_insn, ptr %7, i64 %12
  store ptr %13, ptr %3, align 8
  %14 = load ptr, ptr %2, align 8
  %15 = getelementptr inbounds %struct._ir_ctx, ptr %14, i32 0, i32 4
  %16 = load i32, ptr %15, align 4
  store i32 %16, ptr %4, align 4
  %17 = load ptr, ptr %2, align 8
  %18 = getelementptr inbounds %struct._ir_ctx, ptr %17, i32 0, i32 4
  %19 = load i32, ptr %18, align 4
  %20 = icmp slt i32 %19, 4096
  br i1 %20, label %21, label %26

21:                                               ; preds = %1
  %22 = load ptr, ptr %2, align 8
  %23 = getelementptr inbounds %struct._ir_ctx, ptr %22, i32 0, i32 4
  %24 = load i32, ptr %23, align 4
  %25 = mul nsw i32 %24, 2
  store i32 %25, ptr %23, align 4
  br label %40

26:                                               ; preds = %1
  %27 = load ptr, ptr %2, align 8
  %28 = getelementptr inbounds %struct._ir_ctx, ptr %27, i32 0, i32 4
  %29 = load i32, ptr %28, align 4
  %30 = icmp slt i32 %29, 8192
  br i1 %30, label %31, label %34

31:                                               ; preds = %26
  %32 = load ptr, ptr %2, align 8
  %33 = getelementptr inbounds %struct._ir_ctx, ptr %32, i32 0, i32 4
  store i32 8192, ptr %33, align 4
  br label %39

34:                                               ; preds = %26
  %35 = load ptr, ptr %2, align 8
  %36 = getelementptr inbounds %struct._ir_ctx, ptr %35, i32 0, i32 4
  %37 = load i32, ptr %36, align 4
  %38 = add nsw i32 %37, 4096
  store i32 %38, ptr %36, align 4
  br label %39

39:                                               ; preds = %34, %31
  br label %40

40:                                               ; preds = %39, %21
  %41 = load ptr, ptr %3, align 8
  %42 = load ptr, ptr %2, align 8
  %43 = getelementptr inbounds %struct._ir_ctx, ptr %42, i32 0, i32 4
  %44 = load i32, ptr %43, align 4
  %45 = load ptr, ptr %2, align 8
  %46 = getelementptr inbounds %struct._ir_ctx, ptr %45, i32 0, i32 2
  %47 = load i32, ptr %46, align 4
  %48 = add nsw i32 %44, %47
  %49 = sext i32 %48 to i64
  %50 = mul i64 %49, 16
  %51 = call ptr @_erealloc(ptr noundef %41, i64 noundef %50) #14
  store ptr %51, ptr %3, align 8
  %52 = load ptr, ptr %3, align 8
  %53 = load ptr, ptr %2, align 8
  %54 = getelementptr inbounds %struct._ir_ctx, ptr %53, i32 0, i32 4
  %55 = load i32, ptr %54, align 4
  %56 = load i32, ptr %4, align 4
  %57 = sub nsw i32 %55, %56
  %58 = sext i32 %57 to i64
  %59 = getelementptr inbounds %struct._ir_insn, ptr %52, i64 %58
  %60 = load ptr, ptr %3, align 8
  %61 = load i32, ptr %4, align 4
  %62 = load ptr, ptr %2, align 8
  %63 = getelementptr inbounds %struct._ir_ctx, ptr %62, i32 0, i32 1
  %64 = load i32, ptr %63, align 8
  %65 = add nsw i32 %61, %64
  %66 = sext i32 %65 to i64
  %67 = mul i64 %66, 16
  call void @llvm.memmove.p0.p0.i64(ptr align 8 %59, ptr align 8 %60, i64 %67, i1 false)
  %68 = load ptr, ptr %3, align 8
  %69 = load ptr, ptr %2, align 8
  %70 = getelementptr inbounds %struct._ir_ctx, ptr %69, i32 0, i32 4
  %71 = load i32, ptr %70, align 4
  %72 = sext i32 %71 to i64
  %73 = getelementptr inbounds %struct._ir_insn, ptr %68, i64 %72
  %74 = load ptr, ptr %2, align 8
  %75 = getelementptr inbounds %struct._ir_ctx, ptr %74, i32 0, i32 0
  store ptr %73, ptr %75, align 8
  ret void
}

; Function Attrs: nounwind uwtable
define internal i32 @ir_next_const(ptr noundef %0) #0 {
  %2 = alloca ptr, align 8
  %3 = alloca i32, align 4
  store ptr %0, ptr %2, align 8
  %4 = load ptr, ptr %2, align 8
  %5 = getelementptr inbounds %struct._ir_ctx, ptr %4, i32 0, i32 3
  %6 = load i32, ptr %5, align 8
  store i32 %6, ptr %3, align 4
  %7 = load i32, ptr %3, align 4
  %8 = load ptr, ptr %2, align 8
  %9 = getelementptr inbounds %struct._ir_ctx, ptr %8, i32 0, i32 4
  %10 = load i32, ptr %9, align 4
  %11 = icmp sge i32 %7, %10
  %12 = xor i1 %11, true
  %13 = xor i1 %12, true
  %14 = zext i1 %13 to i32
  %15 = sext i32 %14 to i64
  %16 = icmp ne i64 %15, 0
  br i1 %16, label %17, label %19

17:                                               ; preds = %1
  %18 = load ptr, ptr %2, align 8
  call void @ir_grow_bottom(ptr noundef %18)
  br label %19

19:                                               ; preds = %17, %1
  %20 = load i32, ptr %3, align 4
  %21 = add nsw i32 %20, 1
  %22 = load ptr, ptr %2, align 8
  %23 = getelementptr inbounds %struct._ir_ctx, ptr %22, i32 0, i32 3
  store i32 %21, ptr %23, align 8
  %24 = load i32, ptr %3, align 4
  %25 = sub nsw i32 0, %24
  ret i32 %25
}

; Function Attrs: nounwind uwtable
define hidden i32 @ir_const_ex(ptr noundef %0, i64 %1, i8 noundef zeroext %2, i32 noundef %3) #0 {
  %5 = alloca i32, align 4
  %6 = alloca %union._ir_val, align 8
  %7 = alloca ptr, align 8
  %8 = alloca i8, align 1
  %9 = alloca i32, align 4
  %10 = alloca ptr, align 8
  %11 = alloca ptr, align 8
  %12 = alloca i32, align 4
  %13 = alloca i32, align 4
  %14 = getelementptr inbounds %union._ir_val, ptr %6, i32 0, i32 0
  store i64 %1, ptr %14, align 8
  store ptr %0, ptr %7, align 8
  store i8 %2, ptr %8, align 1
  store i32 %3, ptr %9, align 4
  %15 = load i8, ptr %8, align 1
  %16 = zext i8 %15 to i32
  %17 = icmp eq i32 %16, 1
  br i1 %17, label %18, label %22

18:                                               ; preds = %4
  %19 = load i64, ptr %6, align 8
  %20 = icmp ne i64 %19, 0
  %21 = select i1 %20, i32 -3, i32 -2
  store i32 %21, ptr %5, align 4
  br label %134

22:                                               ; preds = %4
  %23 = load i8, ptr %8, align 1
  %24 = zext i8 %23 to i32
  %25 = icmp eq i32 %24, 6
  br i1 %25, label %26, label %30

26:                                               ; preds = %22
  %27 = load i64, ptr %6, align 8
  %28 = icmp eq i64 %27, 0
  br i1 %28, label %29, label %30

29:                                               ; preds = %26
  store i32 -1, ptr %5, align 4
  br label %134

30:                                               ; preds = %26, %22
  br label %31

31:                                               ; preds = %30
  store ptr null, ptr %11, align 8
  %32 = load ptr, ptr %7, align 8
  %33 = getelementptr inbounds %struct._ir_ctx, ptr %32, i32 0, i32 55
  %34 = load i8, ptr %8, align 1
  %35 = zext i8 %34 to i64
  %36 = getelementptr inbounds [14 x i32], ptr %33, i64 0, i64 %35
  %37 = load i32, ptr %36, align 4
  store i32 %37, ptr %12, align 4
  br label %38

38:                                               ; preds = %76, %31
  %39 = load i32, ptr %12, align 4
  %40 = icmp ne i32 %39, 0
  br i1 %40, label %41, label %82

41:                                               ; preds = %38
  %42 = load ptr, ptr %7, align 8
  %43 = getelementptr inbounds %struct._ir_ctx, ptr %42, i32 0, i32 0
  %44 = load ptr, ptr %43, align 8
  %45 = load i32, ptr %12, align 4
  %46 = sext i32 %45 to i64
  %47 = getelementptr inbounds %struct._ir_insn, ptr %44, i64 %46
  store ptr %47, ptr %10, align 8
  %48 = load ptr, ptr %10, align 8
  %49 = getelementptr inbounds %struct._ir_insn, ptr %48, i32 0, i32 1
  %50 = load i64, ptr %49, align 8
  %51 = load i64, ptr %6, align 8
  %52 = icmp uge i64 %50, %51
  %53 = xor i1 %52, true
  %54 = xor i1 %53, true
  %55 = zext i1 %54 to i32
  %56 = sext i32 %55 to i64
  %57 = icmp ne i64 %56, 0
  br i1 %57, label %58, label %76

58:                                               ; preds = %41
  %59 = load ptr, ptr %10, align 8
  %60 = getelementptr inbounds %struct._ir_insn, ptr %59, i32 0, i32 1
  %61 = load i64, ptr %60, align 8
  %62 = load i64, ptr %6, align 8
  %63 = icmp eq i64 %61, %62
  br i1 %63, label %64, label %74

64:                                               ; preds = %58
  %65 = load ptr, ptr %10, align 8
  %66 = getelementptr inbounds %struct._ir_insn, ptr %65, i32 0, i32 0
  %67 = getelementptr inbounds %struct.anon, ptr %66, i32 0, i32 0
  %68 = load i32, ptr %67, align 8
  %69 = load i32, ptr %9, align 4
  %70 = icmp eq i32 %68, %69
  br i1 %70, label %71, label %73

71:                                               ; preds = %64
  %72 = load i32, ptr %12, align 4
  store i32 %72, ptr %5, align 4
  br label %134

73:                                               ; preds = %64
  br label %75

74:                                               ; preds = %58
  br label %82

75:                                               ; preds = %73
  br label %76

76:                                               ; preds = %75, %41
  %77 = load ptr, ptr %10, align 8
  store ptr %77, ptr %11, align 8
  %78 = load ptr, ptr %10, align 8
  %79 = getelementptr inbounds %struct._ir_insn, ptr %78, i32 0, i32 0
  %80 = getelementptr inbounds %struct.anon, ptr %79, i32 0, i32 1
  %81 = load i32, ptr %80, align 4
  store i32 %81, ptr %12, align 4
  br label %38

82:                                               ; preds = %74, %38
  %83 = load ptr, ptr %11, align 8
  %84 = icmp ne ptr %83, null
  br i1 %84, label %85, label %97

85:                                               ; preds = %82
  %86 = load ptr, ptr %11, align 8
  %87 = getelementptr inbounds %struct._ir_insn, ptr %86, i32 0, i32 0
  %88 = getelementptr inbounds %struct.anon, ptr %87, i32 0, i32 1
  %89 = load i32, ptr %88, align 4
  store i32 %89, ptr %13, align 4
  %90 = load ptr, ptr %7, align 8
  %91 = getelementptr inbounds %struct._ir_ctx, ptr %90, i32 0, i32 3
  %92 = load i32, ptr %91, align 8
  %93 = sub nsw i32 0, %92
  %94 = load ptr, ptr %11, align 8
  %95 = getelementptr inbounds %struct._ir_insn, ptr %94, i32 0, i32 0
  %96 = getelementptr inbounds %struct.anon, ptr %95, i32 0, i32 1
  store i32 %93, ptr %96, align 4
  br label %113

97:                                               ; preds = %82
  %98 = load ptr, ptr %7, align 8
  %99 = getelementptr inbounds %struct._ir_ctx, ptr %98, i32 0, i32 55
  %100 = load i8, ptr %8, align 1
  %101 = zext i8 %100 to i64
  %102 = getelementptr inbounds [14 x i32], ptr %99, i64 0, i64 %101
  %103 = load i32, ptr %102, align 4
  store i32 %103, ptr %13, align 4
  %104 = load ptr, ptr %7, align 8
  %105 = getelementptr inbounds %struct._ir_ctx, ptr %104, i32 0, i32 3
  %106 = load i32, ptr %105, align 8
  %107 = sub nsw i32 0, %106
  %108 = load ptr, ptr %7, align 8
  %109 = getelementptr inbounds %struct._ir_ctx, ptr %108, i32 0, i32 55
  %110 = load i8, ptr %8, align 1
  %111 = zext i8 %110 to i64
  %112 = getelementptr inbounds [14 x i32], ptr %109, i64 0, i64 %111
  store i32 %107, ptr %112, align 4
  br label %113

113:                                              ; preds = %97, %85
  %114 = load ptr, ptr %7, align 8
  %115 = call i32 @ir_next_const(ptr noundef %114)
  store i32 %115, ptr %12, align 4
  %116 = load ptr, ptr %7, align 8
  %117 = getelementptr inbounds %struct._ir_ctx, ptr %116, i32 0, i32 0
  %118 = load ptr, ptr %117, align 8
  %119 = load i32, ptr %12, align 4
  %120 = sext i32 %119 to i64
  %121 = getelementptr inbounds %struct._ir_insn, ptr %118, i64 %120
  store ptr %121, ptr %10, align 8
  %122 = load i32, ptr %13, align 4
  %123 = load ptr, ptr %10, align 8
  %124 = getelementptr inbounds %struct._ir_insn, ptr %123, i32 0, i32 0
  %125 = getelementptr inbounds %struct.anon, ptr %124, i32 0, i32 1
  store i32 %122, ptr %125, align 4
  %126 = load i32, ptr %9, align 4
  %127 = load ptr, ptr %10, align 8
  %128 = getelementptr inbounds %struct._ir_insn, ptr %127, i32 0, i32 0
  %129 = getelementptr inbounds %struct.anon, ptr %128, i32 0, i32 0
  store i32 %126, ptr %129, align 8
  %130 = load i64, ptr %6, align 8
  %131 = load ptr, ptr %10, align 8
  %132 = getelementptr inbounds %struct._ir_insn, ptr %131, i32 0, i32 1
  store i64 %130, ptr %132, align 8
  %133 = load i32, ptr %12, align 4
  store i32 %133, ptr %5, align 4
  br label %134

134:                                              ; preds = %113, %71, %29, %18
  %135 = load i32, ptr %5, align 4
  ret i32 %135
}