; Function Attrs: nounwind uwtable
define hidden i32 @ir_const_ex(ptr nocapture noundef %0, i64 %1, i8 noundef zeroext %2, i32 noundef %3) local_unnamed_addr #0 {
  %5 = icmp eq i8 %2, 1
  br i1 %5, label %6, label %8

6:                                                ; preds = %4
  %.not45 = icmp eq i64 %1, 0
  %7 = select i1 %.not45, i32 -2, i32 -3
  br label %.loopexit

8:                                                ; preds = %4
  %9 = icmp eq i8 %2, 6
  %10 = icmp eq i64 %1, 0
  %or.cond = select i1 %9, i1 %10, i1 false
  br i1 %or.cond, label %.loopexit, label %11

11:                                               ; preds = %8
  %12 = getelementptr inbounds i8, ptr %0, i64 620
  %13 = zext i8 %2 to i64
  %14 = getelementptr inbounds [14 x i32], ptr %12, i64 0, i64 %13
  %.03748 = load i32, ptr %14, align 4
  %.not49 = icmp eq i32 %.03748, 0
  br i1 %.not49, label %._crit_edge.thread, label %.lr.ph

.lr.ph:                                           ; preds = %11
  %15 = load ptr, ptr %0, align 8
  br label %16

16:                                               ; preds = %.lr.ph, %26
  %.03751 = phi i32 [ %.03748, %.lr.ph ], [ %.037, %26 ]
  %.03850 = phi ptr [ null, %.lr.ph ], [ %18, %26 ]
  %17 = sext i32 %.03751 to i64
  %18 = getelementptr inbounds %struct._ir_insn, ptr %15, i64 %17
  %19 = getelementptr inbounds i8, ptr %18, i64 8
  %20 = load i64, ptr %19, align 8
  %.not43 = icmp ult i64 %20, %1
  br i1 %.not43, label %26, label %21

21:                                               ; preds = %16
  %22 = icmp eq i64 %20, %1
  br i1 %22, label %23, label %._crit_edge

23:                                               ; preds = %21
  %24 = load i32, ptr %18, align 8
  %25 = icmp eq i32 %24, %3
  br i1 %25, label %.loopexit, label %26

26:                                               ; preds = %23, %16
  %27 = getelementptr inbounds i8, ptr %18, i64 4
  %.037 = load i32, ptr %27, align 4
  %.not = icmp eq i32 %.037, 0
  br i1 %.not, label %._crit_edge.thread58, label %16

._crit_edge:                                      ; preds = %21
  %.not44 = icmp eq ptr %.03850, null
  br i1 %.not44, label %._crit_edge.thread, label %._crit_edge.thread58

._crit_edge.thread58:                             ; preds = %26, %._crit_edge
  %.038.lcssa61 = phi ptr [ %.03850, %._crit_edge ], [ %18, %26 ]
  %28 = getelementptr inbounds i8, ptr %.038.lcssa61, i64 4
  %29 = load i32, ptr %28, align 4
  %30 = getelementptr inbounds i8, ptr %0, i64 16
  %31 = load i32, ptr %30, align 8
  %32 = sub nsw i32 0, %31
  store i32 %32, ptr %28, align 4
  %.pre = load i32, ptr %30, align 8
  br label %36

._crit_edge.thread:                               ; preds = %11, %._crit_edge
  %33 = getelementptr inbounds i8, ptr %0, i64 16
  %34 = load i32, ptr %33, align 8
  %35 = sub nsw i32 0, %34
  store i32 %35, ptr %14, align 4
  br label %36

36:                                               ; preds = %._crit_edge.thread, %._crit_edge.thread58
  %37 = phi i32 [ %.pre, %._crit_edge.thread58 ], [ %34, %._crit_edge.thread ]
  %.0 = phi i32 [ %29, %._crit_edge.thread58 ], [ %.03748, %._crit_edge.thread ]
  %38 = getelementptr inbounds i8, ptr %0, i64 16
  %39 = getelementptr inbounds i8, ptr %0, i64 20
  %40 = load i32, ptr %39, align 4
  %.not.i = icmp slt i32 %37, %40
  %.pre55 = load ptr, ptr %0, align 8
  br i1 %.not.i, label %ir_next_const.exit, label %41

41:                                               ; preds = %36
  %42 = icmp slt i32 %40, 4096
  %43 = shl nsw i32 %40, 1
  %44 = icmp ult i32 %40, 8192
  %45 = add nuw nsw i32 %40, 4096
  %spec.select.i.i = select i1 %44, i32 8192, i32 %45
  %.sink.i.i = select i1 %42, i32 %43, i32 %spec.select.i.i
  store i32 %.sink.i.i, ptr %39, align 4
  %46 = sext i32 %40 to i64
  %47 = sub nsw i64 0, %46
  %48 = getelementptr inbounds %struct._ir_insn, ptr %.pre55, i64 %47
  %49 = getelementptr inbounds i8, ptr %0, i64 12
  %50 = load i32, ptr %49, align 4
  %51 = add nsw i32 %50, %.sink.i.i
  %52 = sext i32 %51 to i64
  %53 = shl nsw i64 %52, 4
  %54 = tail call ptr @_erealloc(ptr noundef %48, i64 noundef %53) #24
  %55 = load i32, ptr %39, align 4
  %56 = sub nsw i32 %55, %40
  %57 = sext i32 %56 to i64
  %58 = getelementptr inbounds %struct._ir_insn, ptr %54, i64 %57
  %59 = getelementptr inbounds i8, ptr %0, i64 8
  %60 = load i32, ptr %59, align 8
  %61 = add nsw i32 %60, %40
  %62 = sext i32 %61 to i64
  %63 = shl nsw i64 %62, 4
  tail call void @llvm.memmove.p0.p0.i64(ptr align 8 %58, ptr align 8 %54, i64 %63, i1 false)
  %64 = load i32, ptr %39, align 4
  %65 = sext i32 %64 to i64
  %66 = getelementptr inbounds %struct._ir_insn, ptr %54, i64 %65
  store ptr %66, ptr %0, align 8
  br label %ir_next_const.exit

ir_next_const.exit:                               ; preds = %36, %41
  %67 = phi ptr [ %.pre55, %36 ], [ %66, %41 ]
  %68 = add nsw i32 %37, 1
  store i32 %68, ptr %38, align 8
  %69 = sub nsw i32 0, %37
  %70 = sext i32 %69 to i64
  %71 = getelementptr inbounds %struct._ir_insn, ptr %67, i64 %70
  %72 = getelementptr inbounds i8, ptr %71, i64 4
  store i32 %.0, ptr %72, align 4
  store i32 %3, ptr %71, align 8
  %73 = getelementptr inbounds i8, ptr %71, i64 8
  store i64 %1, ptr %73, align 8
  br label %.loopexit

.loopexit:                                        ; preds = %23, %8, %ir_next_const.exit, %6
  %.039 = phi i32 [ %7, %6 ], [ %69, %ir_next_const.exit ], [ -1, %8 ], [ %.03751, %23 ]
  ret i32 %.039
}